; Function Attrs: inlinehint nounwind uwtable
define internal fastcc range(i32 0, -1) i32 @Gia_ManAppendCi(ptr noundef captures(none) %0) unnamed_addr #2 {
  %2 = tail call fastcc ptr @Gia_ManAppendObj(ptr noundef %0)
  %3 = load i64, ptr %2, align 4
  %4 = or i64 %3, 2684354559
  store i64 %4, ptr %2, align 4
  %5 = getelementptr inbounds nuw i8, ptr %0, i64 64
  %6 = load ptr, ptr %5, align 8, !tbaa !40
  %7 = getelementptr i8, ptr %6, i64 4
  %.val = load i32, ptr %7, align 4, !tbaa !41
  %8 = and i32 %.val, 536870911
  %9 = zext nneg i32 %8 to i64
  %10 = shl nuw nsw i64 %9, 32
  %11 = and i64 %4, -2305843004918726657
  %12 = or disjoint i64 %10, %11
  store i64 %12, ptr %2, align 4
  %13 = load ptr, ptr %5, align 8, !tbaa !40
  %14 = getelementptr i8, ptr %0, i64 32
  %.val10 = load ptr, ptr %14, align 8, !tbaa !11
  %15 = getelementptr inbounds nuw i8, ptr %13, i64 4
  %16 = load i32, ptr %15, align 4, !tbaa !41
  %17 = load i32, ptr %13, align 8, !tbaa !48
  %18 = icmp eq i32 %16, %17
  br i1 %18, label %19, label %.Vec_IntGrow.exit10_crit_edge.i

.Vec_IntGrow.exit10_crit_edge.i:                  ; preds = %1
  %.phi.trans.insert.i = getelementptr inbounds nuw i8, ptr %13, i64 8
  %.pre.i = load ptr, ptr %.phi.trans.insert.i, align 8, !tbaa !3
  br label %Vec_IntPush.exit

19:                                               ; preds = %1
  %20 = icmp slt i32 %16, 16
  br i1 %20, label %21, label %29

21:                                               ; preds = %19
  %22 = getelementptr inbounds nuw i8, ptr %13, i64 8
  %23 = load ptr, ptr %22, align 8, !tbaa !3
  %.not9.i.i = icmp eq ptr %23, null
  br i1 %.not9.i.i, label %26, label %24

24:                                               ; preds = %21
  %25 = tail call dereferenceable_or_null(64) ptr @realloc(ptr noundef nonnull %23, i64 noundef 64) #22
  br label %Vec_IntGrow.exit.i

26:                                               ; preds = %21
  %27 = tail call noalias dereferenceable_or_null(64) ptr @malloc(i64 noundef 64) #21
  br label %Vec_IntGrow.exit.i

Vec_IntGrow.exit.i:                               ; preds = %26, %24
  %28 = phi ptr [ %25, %24 ], [ %27, %26 ]
  store ptr %28, ptr %22, align 8, !tbaa !3
  store i32 16, ptr %13, align 8, !tbaa !48
  br label %Vec_IntPush.exit

29:                                               ; preds = %19
  %30 = shl nuw nsw i32 %16, 1
  %31 = getelementptr inbounds nuw i8, ptr %13, i64 8
  %32 = load ptr, ptr %31, align 8, !tbaa !3
  %.not9.i9.i = icmp eq ptr %32, null
  %33 = zext nneg i32 %30 to i64
  %34 = shl nuw nsw i64 %33, 2
  br i1 %.not9.i9.i, label %37, label %35

35:                                               ; preds = %29
  %36 = tail call ptr @realloc(ptr noundef nonnull %32, i64 noundef %34) #22
  br label %39

37:                                               ; preds = %29
  %38 = tail call noalias ptr @malloc(i64 noundef %34) #21
  br label %39

39:                                               ; preds = %37, %35
  %40 = phi ptr [ %36, %35 ], [ %38, %37 ]
  store ptr %40, ptr %31, align 8, !tbaa !3
  store i32 %30, ptr %13, align 8, !tbaa !48
  br label %Vec_IntPush.exit

Vec_IntPush.exit:                                 ; preds = %.Vec_IntGrow.exit10_crit_edge.i, %Vec_IntGrow.exit.i, %39
  %41 = phi ptr [ %.pre.i, %.Vec_IntGrow.exit10_crit_edge.i ], [ %40, %39 ], [ %28, %Vec_IntGrow.exit.i ]
  %42 = ptrtoint ptr %2 to i64
  %43 = ptrtoint ptr %.val10 to i64
  %44 = sub i64 %42, %43
  %45 = sdiv exact i64 %44, 12
  %46 = trunc i64 %45 to i32
  %47 = load i32, ptr %15, align 4, !tbaa !41
  %48 = add nsw i32 %47, 1
  store i32 %48, ptr %15, align 4, !tbaa !41
  %49 = sext i32 %47 to i64
  %50 = getelementptr inbounds i32, ptr %41, i64 %49
  store i32 %46, ptr %50, align 4, !tbaa !10
  %.val11 = load ptr, ptr %14, align 8, !tbaa !11
  %51 = ptrtoint ptr %.val11 to i64
  %52 = sub i64 %42, %51
  %53 = sdiv exact i64 %52, 12
  %54 = trunc i64 %53 to i32
  %55 = shl i32 %54, 1
  ret i32 %55
}